ARM GAS  C:\Users\RYANHA~1\AppData\Local\Temp\ccAwqD07.s 			page 1


   1              		.syntax unified
   2              		.cpu cortex-m4
   3              		.eabi_attribute 27, 1
   4              		.fpu fpv4-sp-d16
   5              		.eabi_attribute 20, 1
   6              		.eabi_attribute 21, 1
   7              		.eabi_attribute 23, 3
   8              		.eabi_attribute 24, 1
   9              		.eabi_attribute 25, 1
  10              		.eabi_attribute 26, 1
  11              		.eabi_attribute 30, 1
  12              		.eabi_attribute 34, 1
  13              		.eabi_attribute 18, 4
  14              		.thumb
  15              		.syntax unified
  16              		.file	"commandargparser.c"
  17              		.text
  18              	.Ltext0:
  19              		.cfi_sections	.debug_frame
  20              		.section	.text.command_parser,"ax",%progbits
  21              		.align	2
  22              		.global	command_parser
  23              		.thumb
  24              		.thumb_func
  25              		.type	command_parser, %function
  26              	command_parser:
  27              	.LFB637:
  28              		.file 1 "commandargparser.c"
   1:commandargparser.c **** /* ========================================
   2:commandargparser.c ****  ** Command argument parser source file
   3:commandargparser.c ****  * ========================================
   4:commandargparser.c **** */
   5:commandargparser.c **** 
   6:commandargparser.c **** #include "project.h"
   7:commandargparser.c **** #include "stdlib.h"
   8:commandargparser.c **** #include "stdio.h"
   9:commandargparser.c **** #include "string.h"
  10:commandargparser.c **** #include "commandargparser.h"
  11:commandargparser.c **** 
  12:commandargparser.c **** /*This function is in charge of taking the string inputted by puttY
  13:commandargparser.c ****   and parsing that string till we get the correct value
  14:commandargparser.c ****   it takes as arguments global variables passed in from main*/
  15:commandargparser.c **** 
  16:commandargparser.c **** void command_parser(char* str,char mode[],int* trigger_level, char trigger_slope[],
  17:commandargparser.c ****     int* trigger_channel,int* xscale, int* yscale, char startNstop[]){
  29              		.loc 1 17 0
  30              		.cfi_startproc
  31              		@ args = 16, pretend = 0, frame = 8
  32              		@ frame_needed = 0, uses_anonymous_args = 0
  33              	.LVL0:
  34 0000 F0B5     		push	{r4, r5, r6, r7, lr}
  35              		.cfi_def_cfa_offset 20
  36              		.cfi_offset 4, -20
  37              		.cfi_offset 5, -16
  38              		.cfi_offset 6, -12
  39              		.cfi_offset 7, -8
  40              		.cfi_offset 14, -4
ARM GAS  C:\Users\RYANHA~1\AppData\Local\Temp\ccAwqD07.s 			page 2


  41 0002 83B0     		sub	sp, sp, #12
  42              		.cfi_def_cfa_offset 32
  43 0004 0446     		mov	r4, r0
  44 0006 0D46     		mov	r5, r1
  45 0008 1646     		mov	r6, r2
  46 000a 1F46     		mov	r7, r3
  18:commandargparser.c ****     //printf("\ncommand argument string = %s\r\n",str);
  19:commandargparser.c ****     
  20:commandargparser.c ****     /*check if start and stop are active*/
  21:commandargparser.c ****     if(strstr(str,"start") != NULL){
  47              		.loc 1 21 0
  48 000c 6249     		ldr	r1, .L17
  49              	.LVL1:
  50 000e FFF7FEFF 		bl	strstr
  51              	.LVL2:
  52 0012 48B1     		cbz	r0, .L2
  22:commandargparser.c ****         sscanf(str,"%s", startNstop);
  53              		.loc 1 22 0
  54 0014 0B9A     		ldr	r2, [sp, #44]
  55 0016 6149     		ldr	r1, .L17+4
  56 0018 2046     		mov	r0, r4
  57 001a FFF7FEFF 		bl	sscanf
  58              	.LVL3:
  23:commandargparser.c ****         //respond
  24:commandargparser.c ****         printf("\nProgram %s\r\n",startNstop);
  59              		.loc 1 24 0
  60 001e 0B99     		ldr	r1, [sp, #44]
  61 0020 5F48     		ldr	r0, .L17+8
  62 0022 FFF7FEFF 		bl	printf
  63              	.LVL4:
  64 0026 B4E0     		b	.L1
  65              	.L2:
  25:commandargparser.c ****     }
  26:commandargparser.c ****     else if(strstr(str,"stop") != NULL){
  66              		.loc 1 26 0
  67 0028 5E49     		ldr	r1, .L17+12
  68 002a 2046     		mov	r0, r4
  69 002c FFF7FEFF 		bl	strstr
  70              	.LVL5:
  71 0030 48B1     		cbz	r0, .L4
  27:commandargparser.c ****         sscanf(str,"%s", startNstop);
  72              		.loc 1 27 0
  73 0032 0B9A     		ldr	r2, [sp, #44]
  74 0034 5949     		ldr	r1, .L17+4
  75 0036 2046     		mov	r0, r4
  76 0038 FFF7FEFF 		bl	sscanf
  77              	.LVL6:
  28:commandargparser.c ****         //respond
  29:commandargparser.c ****         printf("\nProgram %s\r\n",startNstop);
  78              		.loc 1 29 0
  79 003c 0B99     		ldr	r1, [sp, #44]
  80 003e 5848     		ldr	r0, .L17+8
  81 0040 FFF7FEFF 		bl	printf
  82              	.LVL7:
  83 0044 A5E0     		b	.L1
  84              	.L4:
  30:commandargparser.c ****     }
ARM GAS  C:\Users\RYANHA~1\AppData\Local\Temp\ccAwqD07.s 			page 3


  31:commandargparser.c ****     /*check if set mode is free or trigger
  32:commandargparser.c ****       in free run mode a free running signal is displayed
  33:commandargparser.c ****       in trigger mode sampled signal is aligned so waveform is more stable
  34:commandargparser.c ****     */
  35:commandargparser.c ****     else if(strstr(str,"set mode") != NULL){
  85              		.loc 1 35 0
  86 0046 5849     		ldr	r1, .L17+16
  87 0048 2046     		mov	r0, r4
  88 004a FFF7FEFF 		bl	strstr
  89              	.LVL8:
  90 004e 48B1     		cbz	r0, .L5
  36:commandargparser.c ****         sscanf(str,"set mode %s", mode);
  91              		.loc 1 36 0
  92 0050 2A46     		mov	r2, r5
  93 0052 5649     		ldr	r1, .L17+20
  94 0054 2046     		mov	r0, r4
  95 0056 FFF7FEFF 		bl	sscanf
  96              	.LVL9:
  37:commandargparser.c ****         //respond
  38:commandargparser.c ****         printf("\nMode set to %s running\r\n",mode);
  97              		.loc 1 38 0
  98 005a 2946     		mov	r1, r5
  99 005c 5448     		ldr	r0, .L17+24
 100 005e FFF7FEFF 		bl	printf
 101              	.LVL10:
 102 0062 96E0     		b	.L1
 103              	.L5:
  39:commandargparser.c ****     }
  40:commandargparser.c ****     /*trigger level set 0-3v in steps of 100mV, Default=1V*/
  41:commandargparser.c ****     else if(strstr(str,"set trigger_level") != NULL){
 104              		.loc 1 41 0
 105 0064 5349     		ldr	r1, .L17+28
 106 0066 2046     		mov	r0, r4
 107 0068 FFF7FEFF 		bl	strstr
 108              	.LVL11:
 109 006c 88B1     		cbz	r0, .L6
 110              	.LBB2:
  42:commandargparser.c ****         sscanf(str,"set trigger_level %d", trigger_level);
 111              		.loc 1 42 0
 112 006e 524D     		ldr	r5, .L17+32
 113              	.LVL12:
 114 0070 3246     		mov	r2, r6
 115 0072 2946     		mov	r1, r5
 116 0074 2046     		mov	r0, r4
 117 0076 FFF7FEFF 		bl	sscanf
 118              	.LVL13:
  43:commandargparser.c ****         
  44:commandargparser.c ****         int nutrigger_level = (int)trigger_level;
 119              		.loc 1 44 0
 120 007a 02AA     		add	r2, sp, #8
 121 007c 42F8046D 		str	r6, [r2, #-4]!
  45:commandargparser.c ****         sscanf(str,"set trigger_level %d", &nutrigger_level);
 122              		.loc 1 45 0
 123 0080 2946     		mov	r1, r5
 124 0082 2046     		mov	r0, r4
 125 0084 FFF7FEFF 		bl	sscanf
 126              	.LVL14:
ARM GAS  C:\Users\RYANHA~1\AppData\Local\Temp\ccAwqD07.s 			page 4


  46:commandargparser.c ****         //response
  47:commandargparser.c ****         printf("\nTrigger level set to %d mV\r\n",nutrigger_level);
 127              		.loc 1 47 0
 128 0088 0199     		ldr	r1, [sp, #4]
 129 008a 4C48     		ldr	r0, .L17+36
 130 008c FFF7FEFF 		bl	printf
 131              	.LVL15:
 132              	.LBE2:
 133 0090 7FE0     		b	.L1
 134              	.LVL16:
 135              	.L6:
  48:commandargparser.c ****     }
  49:commandargparser.c ****     /*trigger slope positive - rising edge when signal crosses trigger level (default)
  50:commandargparser.c ****       trigger slope negative - falling edge when signal crosses trigger level
  51:commandargparser.c ****     */
  52:commandargparser.c ****     else if(strstr(str,"set trigger_slope") != NULL){
 136              		.loc 1 52 0
 137 0092 4B49     		ldr	r1, .L17+40
 138 0094 2046     		mov	r0, r4
 139 0096 FFF7FEFF 		bl	strstr
 140              	.LVL17:
 141 009a 48B1     		cbz	r0, .L7
  53:commandargparser.c ****         sscanf(str,"set trigger_slope %s", trigger_slope);
 142              		.loc 1 53 0
 143 009c 3A46     		mov	r2, r7
 144 009e 4949     		ldr	r1, .L17+44
 145 00a0 2046     		mov	r0, r4
 146 00a2 FFF7FEFF 		bl	sscanf
 147              	.LVL18:
  54:commandargparser.c ****         //response
  55:commandargparser.c ****         printf("\nTrigger slope set to %s\r\n",trigger_slope);
 148              		.loc 1 55 0
 149 00a6 3946     		mov	r1, r7
 150 00a8 4748     		ldr	r0, .L17+48
 151 00aa FFF7FEFF 		bl	printf
 152              	.LVL19:
 153 00ae 70E0     		b	.L1
 154              	.L7:
  56:commandargparser.c ****     }
  57:commandargparser.c ****     /*trigger_channel - Display waveform ch 1(default) or ch 2
  58:commandargparser.c ****       works only in stopped state*/
  59:commandargparser.c ****     else if(strstr(str,"set trigger_channel") != NULL){
 155              		.loc 1 59 0
 156 00b0 4649     		ldr	r1, .L17+52
 157 00b2 2046     		mov	r0, r4
 158 00b4 FFF7FEFF 		bl	strstr
 159              	.LVL20:
 160 00b8 90B1     		cbz	r0, .L8
 161              	.LBB3:
  60:commandargparser.c ****         sscanf(str,"set trigger_channel %d", trigger_channel);
 162              		.loc 1 60 0
 163 00ba 454D     		ldr	r5, .L17+56
 164              	.LVL21:
 165 00bc 089A     		ldr	r2, [sp, #32]
 166 00be 2946     		mov	r1, r5
 167 00c0 2046     		mov	r0, r4
 168 00c2 FFF7FEFF 		bl	sscanf
ARM GAS  C:\Users\RYANHA~1\AppData\Local\Temp\ccAwqD07.s 			page 5


 169              	.LVL22:
  61:commandargparser.c ****         
  62:commandargparser.c ****         int nutrigger_channel = (int)trigger_channel;
 170              		.loc 1 62 0
 171 00c6 02AA     		add	r2, sp, #8
 172 00c8 089B     		ldr	r3, [sp, #32]
 173 00ca 42F8043D 		str	r3, [r2, #-4]!
  63:commandargparser.c ****         sscanf(str,"set trigger_channel %d", &nutrigger_channel);
 174              		.loc 1 63 0
 175 00ce 2946     		mov	r1, r5
 176 00d0 2046     		mov	r0, r4
 177 00d2 FFF7FEFF 		bl	sscanf
 178              	.LVL23:
  64:commandargparser.c ****         //response
  65:commandargparser.c ****         printf("\nTrigger channel set to %d\r\n",nutrigger_channel);
 179              		.loc 1 65 0
 180 00d6 0199     		ldr	r1, [sp, #4]
 181 00d8 3E48     		ldr	r0, .L17+60
 182 00da FFF7FEFF 		bl	printf
 183              	.LVL24:
 184              	.LBE3:
 185 00de 58E0     		b	.L1
 186              	.LVL25:
 187              	.L8:
  66:commandargparser.c ****     }
  67:commandargparser.c ****     /*xscale: horizontal scale of waveform - uS/div -1000 default value*/
  68:commandargparser.c ****      else if(strstr(str,"set xscale") != NULL){
 188              		.loc 1 68 0
 189 00e0 3D49     		ldr	r1, .L17+64
 190 00e2 2046     		mov	r0, r4
 191 00e4 FFF7FEFF 		bl	strstr
 192              	.LVL26:
 193 00e8 58B3     		cbz	r0, .L9
 194              	.LBB4:
  69:commandargparser.c ****         sscanf(str,"set xscale %d", xscale);
 195              		.loc 1 69 0
 196 00ea 3C4D     		ldr	r5, .L17+68
 197              	.LVL27:
 198 00ec 099A     		ldr	r2, [sp, #36]
 199 00ee 2946     		mov	r1, r5
 200 00f0 2046     		mov	r0, r4
 201 00f2 FFF7FEFF 		bl	sscanf
 202              	.LVL28:
  70:commandargparser.c ****         
  71:commandargparser.c ****         int nuxscale = (int)xscale;
 203              		.loc 1 71 0
 204 00f6 02AA     		add	r2, sp, #8
 205 00f8 099B     		ldr	r3, [sp, #36]
 206 00fa 42F8043D 		str	r3, [r2, #-4]!
  72:commandargparser.c ****         sscanf(str,"set xscale %d", &nuxscale);
 207              		.loc 1 72 0
 208 00fe 2946     		mov	r1, r5
 209 0100 2046     		mov	r0, r4
 210 0102 FFF7FEFF 		bl	sscanf
 211              	.LVL29:
  73:commandargparser.c ****         if(nuxscale==100||nuxscale==200||nuxscale==500||
 212              		.loc 1 73 0
ARM GAS  C:\Users\RYANHA~1\AppData\Local\Temp\ccAwqD07.s 			page 6


 213 0106 0199     		ldr	r1, [sp, #4]
 214 0108 6429     		cmp	r1, #100
 215 010a 12D0     		beq	.L10
 216              		.loc 1 73 0 is_stmt 0 discriminator 1
 217 010c C829     		cmp	r1, #200
 218 010e 10D0     		beq	.L10
 219              		.loc 1 73 0 discriminator 2
 220 0110 B1F5FA7F 		cmp	r1, #500
 221 0114 0DD0     		beq	.L10
 222              		.loc 1 73 0 discriminator 3
 223 0116 B1F57A7F 		cmp	r1, #1000
 224 011a 0AD0     		beq	.L10
  74:commandargparser.c ****             nuxscale==1000||nuxscale==2000||nuxscale==5000||nuxscale==10000)
 225              		.loc 1 74 0 is_stmt 1
 226 011c B1F5FA6F 		cmp	r1, #2000
 227 0120 07D0     		beq	.L10
 228              		.loc 1 74 0 is_stmt 0 discriminator 1
 229 0122 41F28833 		movw	r3, #5000
 230 0126 9942     		cmp	r1, r3
 231 0128 03D0     		beq	.L10
 232              		.loc 1 74 0 discriminator 2
 233 012a 42F21073 		movw	r3, #10000
 234 012e 9942     		cmp	r1, r3
 235 0130 03D1     		bne	.L11
 236              	.L10:
  75:commandargparser.c ****         {
  76:commandargparser.c ****             //response to puTTy
  77:commandargparser.c ****             printf("\nSuccessful! Xscale set to %d uS/div\r\n",nuxscale);
 237              		.loc 1 77 0 is_stmt 1
 238 0132 2B48     		ldr	r0, .L17+72
 239 0134 FFF7FEFF 		bl	printf
 240              	.LVL30:
 241 0138 2BE0     		b	.L1
 242              	.L11:
  78:commandargparser.c ****         }else{
  79:commandargparser.c ****             printf("invalid xscale value\r\n");
 243              		.loc 1 79 0
 244 013a 2A48     		ldr	r0, .L17+76
 245 013c FFF7FEFF 		bl	puts
 246              	.LVL31:
 247 0140 27E0     		b	.L1
 248              	.LVL32:
 249              	.L9:
 250              	.LBE4:
  80:commandargparser.c ****         }    
  81:commandargparser.c ****     }
  82:commandargparser.c ****     /*yscale: vertical scale of waveform - mV/div -1000 default value*/
  83:commandargparser.c ****     else if(strstr(str,"set yscale") != NULL){
 251              		.loc 1 83 0
 252 0142 2949     		ldr	r1, .L17+80
 253 0144 2046     		mov	r0, r4
 254 0146 FFF7FEFF 		bl	strstr
 255              	.LVL33:
 256 014a 10B3     		cbz	r0, .L1
 257              	.LBB5:
  84:commandargparser.c ****         sscanf(str,"set yscale %d", yscale);
 258              		.loc 1 84 0
ARM GAS  C:\Users\RYANHA~1\AppData\Local\Temp\ccAwqD07.s 			page 7


 259 014c 274D     		ldr	r5, .L17+84
 260              	.LVL34:
 261 014e 0A9A     		ldr	r2, [sp, #40]
 262 0150 2946     		mov	r1, r5
 263 0152 2046     		mov	r0, r4
 264 0154 FFF7FEFF 		bl	sscanf
 265              	.LVL35:
  85:commandargparser.c ****         
  86:commandargparser.c ****         int nuyscale = (int)yscale;
 266              		.loc 1 86 0
 267 0158 02AA     		add	r2, sp, #8
 268 015a 0A9B     		ldr	r3, [sp, #40]
 269 015c 42F8043D 		str	r3, [r2, #-4]!
  87:commandargparser.c ****         sscanf(str,"set yscale %d", &nuyscale);
 270              		.loc 1 87 0
 271 0160 2946     		mov	r1, r5
 272 0162 2046     		mov	r0, r4
 273 0164 FFF7FEFF 		bl	sscanf
 274              	.LVL36:
  88:commandargparser.c ****         if(nuyscale == 500|| nuyscale==1000|| nuyscale==1500|| nuyscale==2000){
 275              		.loc 1 88 0
 276 0168 0199     		ldr	r1, [sp, #4]
 277 016a B1F5FA7F 		cmp	r1, #500
 278 016e 09D0     		beq	.L13
 279              		.loc 1 88 0 is_stmt 0 discriminator 1
 280 0170 B1F57A7F 		cmp	r1, #1000
 281 0174 06D0     		beq	.L13
 282              		.loc 1 88 0 discriminator 2
 283 0176 40F2DC53 		movw	r3, #1500
 284 017a 9942     		cmp	r1, r3
 285 017c 02D0     		beq	.L13
 286              		.loc 1 88 0 discriminator 3
 287 017e B1F5FA6F 		cmp	r1, #2000
 288 0182 03D1     		bne	.L14
 289              	.L13:
  89:commandargparser.c ****             //response 
  90:commandargparser.c ****             printf("\nSuccessful! Yscale set to %d mV/div\r\n",nuyscale);
 290              		.loc 1 90 0 is_stmt 1
 291 0184 1A48     		ldr	r0, .L17+88
 292 0186 FFF7FEFF 		bl	printf
 293              	.LVL37:
 294 018a 02E0     		b	.L1
 295              	.L14:
  91:commandargparser.c ****         }else{
  92:commandargparser.c ****             printf("invalid yscale value\r\n");
 296              		.loc 1 92 0
 297 018c 1948     		ldr	r0, .L17+92
 298 018e FFF7FEFF 		bl	puts
 299              	.LVL38:
 300              	.L1:
 301              	.LBE5:
  93:commandargparser.c ****         }    
  94:commandargparser.c ****     }
  95:commandargparser.c **** }...
 302              		.loc 1 95 0
 303 0192 03B0     		add	sp, sp, #12
 304              		.cfi_def_cfa_offset 20
ARM GAS  C:\Users\RYANHA~1\AppData\Local\Temp\ccAwqD07.s 			page 8


 305              		@ sp needed
 306 0194 F0BD     		pop	{r4, r5, r6, r7, pc}
 307              	.LVL39:
 308              	.L18:
 309 0196 00BF     		.align	2
 310              	.L17:
 311 0198 00000000 		.word	.LC0
 312 019c 08000000 		.word	.LC1
 313 01a0 0C000000 		.word	.LC2
 314 01a4 1C000000 		.word	.LC3
 315 01a8 24000000 		.word	.LC4
 316 01ac 30000000 		.word	.LC5
 317 01b0 3C000000 		.word	.LC6
 318 01b4 58000000 		.word	.LC7
 319 01b8 6C000000 		.word	.LC8
 320 01bc 84000000 		.word	.LC9
 321 01c0 A4000000 		.word	.LC10
 322 01c4 B8000000 		.word	.LC11
 323 01c8 D0000000 		.word	.LC12
 324 01cc EC000000 		.word	.LC13
 325 01d0 00010000 		.word	.LC14
 326 01d4 18010000 		.word	.LC15
 327 01d8 38010000 		.word	.LC16
 328 01dc 44010000 		.word	.LC17
 329 01e0 54010000 		.word	.LC18
 330 01e4 7C010000 		.word	.LC19
 331 01e8 94010000 		.word	.LC20
 332 01ec A0010000 		.word	.LC21
 333 01f0 B0010000 		.word	.LC22
 334 01f4 D8010000 		.word	.LC23
 335              		.cfi_endproc
 336              	.LFE637:
 337              		.size	command_parser, .-command_parser
 338              		.section	.rodata.str1.4,"aMS",%progbits,1
 339              		.align	2
 340              	.LC0:
 341 0000 73746172 		.ascii	"start\000"
 341      7400
 342 0006 0000     		.space	2
 343              	.LC1:
 344 0008 257300   		.ascii	"%s\000"
 345 000b 00       		.space	1
 346              	.LC2:
 347 000c 0A50726F 		.ascii	"\012Program %s\015\012\000"
 347      6772616D 
 347      2025730D 
 347      0A00
 348 001a 0000     		.space	2
 349              	.LC3:
 350 001c 73746F70 		.ascii	"stop\000"
 350      00
 351 0021 000000   		.space	3
 352              	.LC4:
 353 0024 73657420 		.ascii	"set mode\000"
 353      6D6F6465 
 353      00
 354 002d 000000   		.space	3
ARM GAS  C:\Users\RYANHA~1\AppData\Local\Temp\ccAwqD07.s 			page 9


 355              	.LC5:
 356 0030 73657420 		.ascii	"set mode %s\000"
 356      6D6F6465 
 356      20257300 
 357              	.LC6:
 358 003c 0A4D6F64 		.ascii	"\012Mode set to %s running\015\012\000"
 358      65207365 
 358      7420746F 
 358      20257320 
 358      72756E6E 
 359 0056 0000     		.space	2
 360              	.LC7:
 361 0058 73657420 		.ascii	"set trigger_level\000"
 361      74726967 
 361      6765725F 
 361      6C657665 
 361      6C00
 362 006a 0000     		.space	2
 363              	.LC8:
 364 006c 73657420 		.ascii	"set trigger_level %d\000"
 364      74726967 
 364      6765725F 
 364      6C657665 
 364      6C202564 
 365 0081 000000   		.space	3
 366              	.LC9:
 367 0084 0A547269 		.ascii	"\012Trigger level set to %d mV\015\012\000"
 367      67676572 
 367      206C6576 
 367      656C2073 
 367      65742074 
 368 00a2 0000     		.space	2
 369              	.LC10:
 370 00a4 73657420 		.ascii	"set trigger_slope\000"
 370      74726967 
 370      6765725F 
 370      736C6F70 
 370      6500
 371 00b6 0000     		.space	2
 372              	.LC11:
 373 00b8 73657420 		.ascii	"set trigger_slope %s\000"
 373      74726967 
 373      6765725F 
 373      736C6F70 
 373      65202573 
 374 00cd 000000   		.space	3
 375              	.LC12:
 376 00d0 0A547269 		.ascii	"\012Trigger slope set to %s\015\012\000"
 376      67676572 
 376      20736C6F 
 376      70652073 
 376      65742074 
 377 00eb 00       		.space	1
 378              	.LC13:
 379 00ec 73657420 		.ascii	"set trigger_channel\000"
 379      74726967 
 379      6765725F 
ARM GAS  C:\Users\RYANHA~1\AppData\Local\Temp\ccAwqD07.s 			page 10


 379      6368616E 
 379      6E656C00 
 380              	.LC14:
 381 0100 73657420 		.ascii	"set trigger_channel %d\000"
 381      74726967 
 381      6765725F 
 381      6368616E 
 381      6E656C20 
 382 0117 00       		.space	1
 383              	.LC15:
 384 0118 0A547269 		.ascii	"\012Trigger channel set to %d\015\012\000"
 384      67676572 
 384      20636861 
 384      6E6E656C 
 384      20736574 
 385 0135 000000   		.space	3
 386              	.LC16:
 387 0138 73657420 		.ascii	"set xscale\000"
 387      78736361 
 387      6C6500
 388 0143 00       		.space	1
 389              	.LC17:
 390 0144 73657420 		.ascii	"set xscale %d\000"
 390      78736361 
 390      6C652025 
 390      6400
 391 0152 0000     		.space	2
 392              	.LC18:
 393 0154 0A537563 		.ascii	"\012Successful! Xscale set to %d uS/div\015\012\000"
 393      63657373 
 393      66756C21 
 393      20587363 
 393      616C6520 
 394 017b 00       		.space	1
 395              	.LC19:
 396 017c 696E7661 		.ascii	"invalid xscale value\015\000"
 396      6C696420 
 396      78736361 
 396      6C652076 
 396      616C7565 
 397 0192 0000     		.space	2
 398              	.LC20:
 399 0194 73657420 		.ascii	"set yscale\000"
 399      79736361 
 399      6C6500
 400 019f 00       		.space	1
 401              	.LC21:
 402 01a0 73657420 		.ascii	"set yscale %d\000"
 402      79736361 
 402      6C652025 
 402      6400
 403 01ae 0000     		.space	2
 404              	.LC22:
 405 01b0 0A537563 		.ascii	"\012Successful! Yscale set to %d mV/div\015\012\000"
 405      63657373 
 405      66756C21 
 405      20597363 
ARM GAS  C:\Users\RYANHA~1\AppData\Local\Temp\ccAwqD07.s 			page 11


 405      616C6520 
 406 01d7 00       		.space	1
 407              	.LC23:
 408 01d8 696E7661 		.ascii	"invalid yscale value\015\000"
 408      6C696420 
 408      79736361 
 408      6C652076 
 408      616C7565 
 409              		.text
 410              	.Letext0:
 411              		.file 2 "c:\\program files (x86)\\cypress\\psoc creator\\4.3\\psoc creator\\import\\gnu\\arm\\5.4.
 412              		.file 3 "c:\\program files (x86)\\cypress\\psoc creator\\4.3\\psoc creator\\import\\gnu\\arm\\5.4.
 413              		.file 4 "Generated_Source\\PSoC6\\pdl\\drivers/peripheral/device/cy_device.h"
 414              		.file 5 "Generated_Source\\PSoC6\\pdl\\drivers/peripheral/sar/cy_sar.h"
 415              		.file 6 "Generated_Source\\PSoC6\\pdl\\drivers/peripheral/scb/cy_scb_uart.h"
 416              		.file 7 "Generated_Source\\PSoC6/ADC_1.h"
 417              		.file 8 "Generated_Source\\PSoC6\\pdl\\cmsis/include/core_cm4.h"
 418              		.file 9 "Generated_Source\\PSoC6/UART_1.h"
 419              		.file 10 "c:\\program files (x86)\\cypress\\psoc creator\\4.3\\psoc creator\\import\\gnu\\arm\\5.4
 420              		.file 11 "c:\\program files (x86)\\cypress\\psoc creator\\4.3\\psoc creator\\import\\gnu\\arm\\5.4
 421              		.file 12 "<built-in>"