ARM GAS  C:\Users\RYANHA~1\AppData\Local\Temp\ccStTnho.s 			page 1


   1              		.syntax unified
   2              		.cpu cortex-m4
   3              		.eabi_attribute 27, 1
   4              		.fpu fpv4-sp-d16
   5              		.eabi_attribute 20, 1
   6              		.eabi_attribute 21, 1
   7              		.eabi_attribute 23, 3
   8              		.eabi_attribute 24, 1
   9              		.eabi_attribute 25, 1
  10              		.eabi_attribute 26, 1
  11              		.eabi_attribute 30, 1
  12              		.eabi_attribute 34, 1
  13              		.eabi_attribute 18, 4
  14              		.thumb
  15              		.syntax unified
  16              		.file	"graphicaldisplay.c"
  17              		.text
  18              	.Ltext0:
  19              		.cfi_sections	.debug_frame
  20              		.section	.text.ShowStartupScreen,"ax",%progbits
  21              		.align	2
  22              		.global	ShowStartupScreen
  23              		.thumb
  24              		.thumb_func
  25              		.type	ShowStartupScreen, %function
  26              	ShowStartupScreen:
  27              	.LFB637:
  28              		.file 1 "graphicaldisplay.c"
   1:graphicaldisplay.c **** /* ========================================
   2:graphicaldisplay.c ****  *
   3:graphicaldisplay.c ****  * Copyright YOUR COMPANY, THE YEAR
   4:graphicaldisplay.c ****  * All Rights Reserved
   5:graphicaldisplay.c ****  * UNPUBLISHED, LICENSED SOFTWARE.
   6:graphicaldisplay.c ****  *
   7:graphicaldisplay.c ****  * CONFIDENTIAL AND PROPRIETARY INFORMATION
   8:graphicaldisplay.c ****  * WHICH IS THE PROPERTY OF your company.
   9:graphicaldisplay.c ****  *
  10:graphicaldisplay.c ****  * ========================================
  11:graphicaldisplay.c **** */
  12:graphicaldisplay.c **** 
  13:graphicaldisplay.c **** #include "graphicaldisplay.h"
  14:graphicaldisplay.c **** #define PI 3.14159265
  15:graphicaldisplay.c **** 
  16:graphicaldisplay.c **** /* Arrays to hold channel waveform data for drawing */
  17:graphicaldisplay.c **** GUI_HMEM ch1_spline;
  18:graphicaldisplay.c **** GUI_HMEM ch2_spline;
  19:graphicaldisplay.c **** 
  20:graphicaldisplay.c **** /*******************************************************************************
  21:graphicaldisplay.c **** Dislay startup screen
  22:graphicaldisplay.c **** *******************************************************************************/
  23:graphicaldisplay.c **** void ShowStartupScreen(void)
  24:graphicaldisplay.c **** {
  29              		.loc 1 24 0
  30              		.cfi_startproc
  31              		@ args = 0, pretend = 0, frame = 0
  32              		@ frame_needed = 0, uses_anonymous_args = 0
  33 0000 08B5     		push	{r3, lr}
ARM GAS  C:\Users\RYANHA~1\AppData\Local\Temp\ccStTnho.s 			page 2


  34              		.cfi_def_cfa_offset 8
  35              		.cfi_offset 3, -8
  36              		.cfi_offset 14, -4
  25:graphicaldisplay.c ****     /* Set font size, foreground and background colors */
  26:graphicaldisplay.c ****     GUI_SetFont(GUI_FONT_32B_1);
  37              		.loc 1 26 0
  38 0002 1148     		ldr	r0, .L3
  39 0004 FFF7FEFF 		bl	GUI_SetFont
  40              	.LVL0:
  27:graphicaldisplay.c ****     GUI_SetBkColor(GUI_BLUE);
  41              		.loc 1 27 0
  42 0008 4FF47F00 		mov	r0, #16711680
  43 000c FFF7FEFF 		bl	GUI_SetBkColor
  44              	.LVL1:
  28:graphicaldisplay.c ****     GUI_SetColor(GUI_LIGHTMAGENTA);
  45              		.loc 1 28 0
  46 0010 0E48     		ldr	r0, .L3+4
  47 0012 FFF7FEFF 		bl	GUI_SetColor
  48              	.LVL2:
  29:graphicaldisplay.c ****     GUI_Clear();
  49              		.loc 1 29 0
  50 0016 FFF7FEFF 		bl	GUI_Clear
  51              	.LVL3:
  30:graphicaldisplay.c ****   
  31:graphicaldisplay.c ****     GUI_SetTextAlign(GUI_TA_HCENTER | GUI_TA_VCENTER);
  52              		.loc 1 31 0
  53 001a 0E20     		movs	r0, #14
  54 001c FFF7FEFF 		bl	GUI_SetTextAlign
  55              	.LVL4:
  32:graphicaldisplay.c ****     GUI_DispStringAt("TinyScope", 160, 120);
  56              		.loc 1 32 0
  57 0020 7822     		movs	r2, #120
  58 0022 A021     		movs	r1, #160
  59 0024 0A48     		ldr	r0, .L3+8
  60 0026 FFF7FEFF 		bl	GUI_DispStringAt
  61              	.LVL5:
  33:graphicaldisplay.c ****     
  34:graphicaldisplay.c ****     GUI_SetFont(GUI_FONT_24B_1);
  62              		.loc 1 34 0
  63 002a 0A48     		ldr	r0, .L3+12
  64 002c FFF7FEFF 		bl	GUI_SetFont
  65              	.LVL6:
  35:graphicaldisplay.c ****     GUI_SetColor(GUI_LIGHTGREEN);
  66              		.loc 1 35 0
  67 0030 0948     		ldr	r0, .L3+16
  68 0032 FFF7FEFF 		bl	GUI_SetColor
  69              	.LVL7:
  36:graphicaldisplay.c ****     GUI_SetTextAlign(GUI_TA_HCENTER);
  70              		.loc 1 36 0
  71 0036 0220     		movs	r0, #2
  72 0038 FFF7FEFF 		bl	GUI_SetTextAlign
  73              	.LVL8:
  37:graphicaldisplay.c ****     GUI_DispStringAt("CSE 121/L Final Project", 160, 200);
  74              		.loc 1 37 0
  75 003c C822     		movs	r2, #200
  76 003e A021     		movs	r1, #160
  77 0040 0648     		ldr	r0, .L3+20
ARM GAS  C:\Users\RYANHA~1\AppData\Local\Temp\ccStTnho.s 			page 3


  78 0042 FFF7FEFF 		bl	GUI_DispStringAt
  79              	.LVL9:
  80 0046 08BD     		pop	{r3, pc}
  81              	.L4:
  82              		.align	2
  83              	.L3:
  84 0048 00000000 		.word	GUI_Font32B_1
  85 004c FF80FF00 		.word	16744703
  86 0050 00000000 		.word	.LC0
  87 0054 00000000 		.word	GUI_Font24B_1
  88 0058 80FF8000 		.word	8454016
  89 005c 0C000000 		.word	.LC1
  90              		.cfi_endproc
  91              	.LFE637:
  92              		.size	ShowStartupScreen, .-ShowStartupScreen
  93              		.global	__aeabi_i2d
  94              		.global	__aeabi_ddiv
  95              		.global	__aeabi_dmul
  96              		.global	__aeabi_dadd
  97              		.global	__aeabi_d2iz
  98              		.section	.text.sineWave,"ax",%progbits
  99              		.align	2
 100              		.global	sineWave
 101              		.thumb
 102              		.thumb_func
 103              		.type	sineWave, %function
 104              	sineWave:
 105              	.LFB638:
  38:graphicaldisplay.c **** }
  39:graphicaldisplay.c **** 
  40:graphicaldisplay.c **** /*******************************************************************************
  41:graphicaldisplay.c **** Generate a sine wave for demo
  42:graphicaldisplay.c **** *******************************************************************************/
  43:graphicaldisplay.c ****   void sineWave(int period, // period in us
  44:graphicaldisplay.c **** 	            int sampleInterval, // Samping interval in us
  45:graphicaldisplay.c **** 	            int samples, // total samples
  46:graphicaldisplay.c ****                 int amplitude, // Amplitude of wave
  47:graphicaldisplay.c **** 	            int *data){ // Wave data
 106              		.loc 1 47 0
 107              		.cfi_startproc
 108              		@ args = 4, pretend = 0, frame = 0
 109              		@ frame_needed = 0, uses_anonymous_args = 0
 110              	.LVL10:
 111 0000 2DE9F84F 		push	{r3, r4, r5, r6, r7, r8, r9, r10, fp, lr}
 112              		.cfi_def_cfa_offset 40
 113              		.cfi_offset 3, -40
 114              		.cfi_offset 4, -36
 115              		.cfi_offset 5, -32
 116              		.cfi_offset 6, -28
 117              		.cfi_offset 7, -24
 118              		.cfi_offset 8, -20
 119              		.cfi_offset 9, -16
 120              		.cfi_offset 10, -12
 121              		.cfi_offset 11, -8
 122              		.cfi_offset 14, -4
 123 0004 8346     		mov	fp, r0
 124 0006 8A46     		mov	r10, r1
ARM GAS  C:\Users\RYANHA~1\AppData\Local\Temp\ccStTnho.s 			page 4


 125 0008 9046     		mov	r8, r2
 126 000a 9946     		mov	r9, r3
 127 000c 0A9D     		ldr	r5, [sp, #40]
 128              	.LVL11:
 129              	.LBB2:
  48:graphicaldisplay.c ****   double rad, f;
  49:graphicaldisplay.c ****   for (int i=0; i<samples; i++){
 130              		.loc 1 49 0
 131 000e 0024     		movs	r4, #0
 132 0010 37E0     		b	.L6
 133              	.LVL12:
 134              	.L10:
  50:graphicaldisplay.c ****     rad = (double) (i * sampleInterval) * ((double) (2.0*PI/period));
 135              		.loc 1 50 0
 136 0012 0AFB04F0 		mul	r0, r10, r4
 137 0016 FFF7FEFF 		bl	__aeabi_i2d
 138              	.LVL13:
 139 001a 0646     		mov	r6, r0
 140 001c 0F46     		mov	r7, r1
 141 001e 5846     		mov	r0, fp
 142 0020 FFF7FEFF 		bl	__aeabi_i2d
 143              	.LVL14:
 144 0024 0246     		mov	r2, r0
 145 0026 0B46     		mov	r3, r1
 146 0028 1AA1     		adr	r1, .L12+4
 147 002a D1E90001 		ldrd	r0, [r1]
 148 002e FFF7FEFF 		bl	__aeabi_ddiv
 149              	.LVL15:
 150 0032 0246     		mov	r2, r0
 151 0034 0B46     		mov	r3, r1
 152 0036 3046     		mov	r0, r6
 153 0038 3946     		mov	r1, r7
 154 003a FFF7FEFF 		bl	__aeabi_dmul
 155              	.LVL16:
  51:graphicaldisplay.c ****     f = sin(rad);
 156              		.loc 1 51 0
 157 003e FFF7FEFF 		bl	sin
 158              	.LVL17:
  52:graphicaldisplay.c ****     data[i] = (int) (f*128.0 + 128.0);
 159              		.loc 1 52 0
 160 0042 A600     		lsls	r6, r4, #2
 161 0044 0022     		movs	r2, #0
 162 0046 124B     		ldr	r3, .L12
 163 0048 FFF7FEFF 		bl	__aeabi_dmul
 164              	.LVL18:
 165 004c 0022     		movs	r2, #0
 166 004e 104B     		ldr	r3, .L12
 167 0050 FFF7FEFF 		bl	__aeabi_dadd
 168              	.LVL19:
 169 0054 FFF7FEFF 		bl	__aeabi_d2iz
 170              	.LVL20:
 171 0058 45F82400 		str	r0, [r5, r4, lsl #2]
  53:graphicaldisplay.c ****     if (data[i] > 255) data[i] = 255;
 172              		.loc 1 53 0
 173 005c FF28     		cmp	r0, #255
 174 005e 02DD     		ble	.L7
 175              		.loc 1 53 0 is_stmt 0 discriminator 1
ARM GAS  C:\Users\RYANHA~1\AppData\Local\Temp\ccStTnho.s 			page 5


 176 0060 FF23     		movs	r3, #255
 177 0062 45F82430 		str	r3, [r5, r4, lsl #2]
 178              	.L7:
  54:graphicaldisplay.c ****     if (data[i] < 0) data[i] = 0;
 179              		.loc 1 54 0 is_stmt 1
 180 0066 AB59     		ldr	r3, [r5, r6]
 181 0068 002B     		cmp	r3, #0
 182 006a 01DA     		bge	.L8
 183              		.loc 1 54 0 is_stmt 0 discriminator 1
 184 006c 0023     		movs	r3, #0
 185 006e AB51     		str	r3, [r5, r6]
 186              	.L8:
  55:graphicaldisplay.c ****     data[i] = data[i] * amplitude/256;
 187              		.loc 1 55 0 is_stmt 1 discriminator 2
 188 0070 AB59     		ldr	r3, [r5, r6]
 189 0072 09FB03F3 		mul	r3, r9, r3
 190 0076 002B     		cmp	r3, #0
 191 0078 00DA     		bge	.L9
 192 007a FF33     		adds	r3, r3, #255
 193              	.L9:
 194 007c 1B12     		asrs	r3, r3, #8
 195 007e AB51     		str	r3, [r5, r6]
  49:graphicaldisplay.c ****     rad = (double) (i * sampleInterval) * ((double) (2.0*PI/period));
 196              		.loc 1 49 0 discriminator 2
 197 0080 0134     		adds	r4, r4, #1
 198              	.LVL21:
 199              	.L6:
  49:graphicaldisplay.c ****     rad = (double) (i * sampleInterval) * ((double) (2.0*PI/period));
 200              		.loc 1 49 0 is_stmt 0 discriminator 1
 201 0082 4445     		cmp	r4, r8
 202 0084 C5DB     		blt	.L10
 203              	.LBE2:
  56:graphicaldisplay.c ****   }
  57:graphicaldisplay.c **** }
 204              		.loc 1 57 0 is_stmt 1
 205 0086 BDE8F88F 		pop	{r3, r4, r5, r6, r7, r8, r9, r10, fp, pc}
 206              	.LVL22:
 207              	.L13:
 208 008a 00BFAFF3 		.align	3
 208      0080
 209              	.L12:
 210 0090 00006040 		.word	1080033280
 211 0094 F1D4C853 		.word	1405670641
 212 0098 FB211940 		.word	1075388923
 213              		.cfi_endproc
 214              	.LFE638:
 215              		.size	sineWave, .-sineWave
 216              		.section	.text.squareWave,"ax",%progbits
 217              		.align	2
 218              		.global	squareWave
 219              		.thumb
 220              		.thumb_func
 221              		.type	squareWave, %function
 222              	squareWave:
 223              	.LFB639:
  58:graphicaldisplay.c **** /*******************************************************************************
  59:graphicaldisplay.c **** Generate a square wave for demo
ARM GAS  C:\Users\RYANHA~1\AppData\Local\Temp\ccStTnho.s 			page 6


  60:graphicaldisplay.c **** *******************************************************************************/
  61:graphicaldisplay.c **** 
  62:graphicaldisplay.c ****  void squareWave(int period, // period in us
  63:graphicaldisplay.c **** 	            int sampleInterval, // Samping interval in us
  64:graphicaldisplay.c **** 	            int samples, // total samples
  65:graphicaldisplay.c ****                 int amplitude, // Amplitude of wave
  66:graphicaldisplay.c **** 	            int *data){ // Wave data
 224              		.loc 1 66 0
 225              		.cfi_startproc
 226              		@ args = 4, pretend = 0, frame = 0
 227              		@ frame_needed = 0, uses_anonymous_args = 0
 228              		@ link register save eliminated.
 229              	.LVL23:
 230 0000 F0B4     		push	{r4, r5, r6, r7}
 231              		.cfi_def_cfa_offset 16
 232              		.cfi_offset 4, -16
 233              		.cfi_offset 5, -12
 234              		.cfi_offset 6, -8
 235              		.cfi_offset 7, -4
 236 0002 049F     		ldr	r7, [sp, #16]
 237              	.LVL24:
 238              	.LBB3:
  67:graphicaldisplay.c **** 
  68:graphicaldisplay.c ****   for (int i=0; i<samples; i++){
 239              		.loc 1 68 0
 240 0004 0024     		movs	r4, #0
 241 0006 11E0     		b	.L15
 242              	.LVL25:
 243              	.L18:
  69:graphicaldisplay.c ****     if ((i *sampleInterval) % period < period/2){
 244              		.loc 1 69 0
 245 0008 01FB04F6 		mul	r6, r1, r4
 246 000c 96FBF0F5 		sdiv	r5, r6, r0
 247 0010 00FB1565 		mls	r5, r0, r5, r6
 248 0014 00EBD076 		add	r6, r0, r0, lsr #31
 249 0018 B5EB660F 		cmp	r5, r6, asr #1
 250 001c 03DA     		bge	.L16
  70:graphicaldisplay.c ****      data[i] = 0;
 251              		.loc 1 70 0
 252 001e 0025     		movs	r5, #0
 253 0020 47F82450 		str	r5, [r7, r4, lsl #2]
 254 0024 01E0     		b	.L17
 255              	.L16:
  71:graphicaldisplay.c ****     }
  72:graphicaldisplay.c ****     else {
  73:graphicaldisplay.c ****       data[i] = amplitude;  
 256              		.loc 1 73 0
 257 0026 47F82430 		str	r3, [r7, r4, lsl #2]
 258              	.L17:
  68:graphicaldisplay.c ****     if ((i *sampleInterval) % period < period/2){
 259              		.loc 1 68 0 discriminator 2
 260 002a 0134     		adds	r4, r4, #1
 261              	.LVL26:
 262              	.L15:
  68:graphicaldisplay.c ****     if ((i *sampleInterval) % period < period/2){
 263              		.loc 1 68 0 is_stmt 0 discriminator 1
 264 002c 9442     		cmp	r4, r2
ARM GAS  C:\Users\RYANHA~1\AppData\Local\Temp\ccStTnho.s 			page 7


 265 002e EBDB     		blt	.L18
 266              	.LBE3:
  74:graphicaldisplay.c ****     }
  75:graphicaldisplay.c ****  }    
  76:graphicaldisplay.c **** }
 267              		.loc 1 76 0 is_stmt 1
 268 0030 F0BC     		pop	{r4, r5, r6, r7}
 269              		.cfi_restore 7
 270              		.cfi_restore 6
 271              		.cfi_restore 5
 272              		.cfi_restore 4
 273              		.cfi_def_cfa_offset 0
 274              	.LVL27:
 275 0032 7047     		bx	lr
 276              		.cfi_endproc
 277              	.LFE639:
 278              		.size	squareWave, .-squareWave
 279              		.section	.text.drawBackground,"ax",%progbits
 280              		.align	2
 281              		.global	drawBackground
 282              		.thumb
 283              		.thumb_func
 284              		.type	drawBackground, %function
 285              	drawBackground:
 286              	.LFB640:
  77:graphicaldisplay.c ****                 
  78:graphicaldisplay.c **** /*******************************************************************************
  79:graphicaldisplay.c **** // Draw the background for the oscilloscope screen
  80:graphicaldisplay.c **** *******************************************************************************/
  81:graphicaldisplay.c **** 
  82:graphicaldisplay.c **** void drawBackground(int w, int h, // width and height of screen
  83:graphicaldisplay.c **** 		    int xmargin, int ymargin){ // Margin around the image
 287              		.loc 1 83 0
 288              		.cfi_startproc
 289              		@ args = 0, pretend = 0, frame = 0
 290              		@ frame_needed = 0, uses_anonymous_args = 0
 291              	.LVL28:
 292 0000 F8B5     		push	{r3, r4, r5, r6, r7, lr}
 293              		.cfi_def_cfa_offset 24
 294              		.cfi_offset 3, -24
 295              		.cfi_offset 4, -20
 296              		.cfi_offset 5, -16
 297              		.cfi_offset 6, -12
 298              		.cfi_offset 7, -8
 299              		.cfi_offset 14, -4
 300 0002 0646     		mov	r6, r0
 301 0004 0F46     		mov	r7, r1
 302 0006 1446     		mov	r4, r2
 303 0008 1D46     		mov	r5, r3
  84:graphicaldisplay.c **** 
  85:graphicaldisplay.c ****    GUI_SetBkColor(GUI_BLACK);
 304              		.loc 1 85 0
 305 000a 0020     		movs	r0, #0
 306              	.LVL29:
 307 000c FFF7FEFF 		bl	GUI_SetBkColor
 308              	.LVL30:
  86:graphicaldisplay.c ****    GUI_SetColor(GUI_DARKCYAN);
ARM GAS  C:\Users\RYANHA~1\AppData\Local\Temp\ccStTnho.s 			page 8


 309              		.loc 1 86 0
 310 0010 0C48     		ldr	r0, .L22
 311 0012 FFF7FEFF 		bl	GUI_SetColor
 312              	.LVL31:
  87:graphicaldisplay.c ****    GUI_FillRect(0, 0, w, h);
 313              		.loc 1 87 0
 314 0016 3B46     		mov	r3, r7
 315 0018 3246     		mov	r2, r6
 316 001a 0021     		movs	r1, #0
 317 001c 0846     		mov	r0, r1
 318 001e FFF7FEFF 		bl	GUI_FillRect
 319              	.LVL32:
  88:graphicaldisplay.c ****    GUI_SetPenSize(1);
 320              		.loc 1 88 0
 321 0022 0120     		movs	r0, #1
 322 0024 FFF7FEFF 		bl	GUI_SetPenSize
 323              	.LVL33:
  89:graphicaldisplay.c ****    GUI_SetColor(GUI_LIGHTGRAY);
 324              		.loc 1 89 0
 325 0028 0748     		ldr	r0, .L22+4
 326 002a FFF7FEFF 		bl	GUI_SetColor
 327              	.LVL34:
  90:graphicaldisplay.c ****    GUI_DrawRect(xmargin, ymargin, w-xmargin, h-ymargin);
 328              		.loc 1 90 0
 329 002e 7B1B     		subs	r3, r7, r5
 330 0030 321B     		subs	r2, r6, r4
 331 0032 2946     		mov	r1, r5
 332 0034 2046     		mov	r0, r4
 333 0036 FFF7FEFF 		bl	GUI_DrawRect
 334              	.LVL35:
  91:graphicaldisplay.c ****    GUI_SetLineStyle(GUI_LS_DOT);
 335              		.loc 1 91 0
 336 003a 0220     		movs	r0, #2
 337 003c FFF7FEFF 		bl	GUI_SetLineStyle
 338              	.LVL36:
 339 0040 F8BD     		pop	{r3, r4, r5, r6, r7, pc}
 340              	.LVL37:
 341              	.L23:
 342 0042 00BF     		.align	2
 343              	.L22:
 344 0044 00808000 		.word	8421376
 345 0048 D3D3D300 		.word	13882323
 346              		.cfi_endproc
 347              	.LFE640:
 348              		.size	drawBackground, .-drawBackground
 349              		.section	.text.drawGrid,"ax",%progbits
 350              		.align	2
 351              		.global	drawGrid
 352              		.thumb
 353              		.thumb_func
 354              		.type	drawGrid, %function
 355              	drawGrid:
 356              	.LFB641:
  92:graphicaldisplay.c **** }
  93:graphicaldisplay.c **** 
  94:graphicaldisplay.c **** /*******************************************************************************
  95:graphicaldisplay.c **** // Draw the X/Y grid
ARM GAS  C:\Users\RYANHA~1\AppData\Local\Temp\ccStTnho.s 			page 9


  96:graphicaldisplay.c **** *******************************************************************************/
  97:graphicaldisplay.c **** void drawGrid(int w, int h, // width and height of screen
  98:graphicaldisplay.c **** 		    int xdiv, int ydiv,// Number of x and y divisions
  99:graphicaldisplay.c **** 		    int xmargin, int ymargin){ // Margin around the image
 357              		.loc 1 99 0
 358              		.cfi_startproc
 359              		@ args = 8, pretend = 0, frame = 8
 360              		@ frame_needed = 0, uses_anonymous_args = 0
 361              	.LVL38:
 362 0000 2DE9F04F 		push	{r4, r5, r6, r7, r8, r9, r10, fp, lr}
 363              		.cfi_def_cfa_offset 36
 364              		.cfi_offset 4, -36
 365              		.cfi_offset 5, -32
 366              		.cfi_offset 6, -28
 367              		.cfi_offset 7, -24
 368              		.cfi_offset 8, -20
 369              		.cfi_offset 9, -16
 370              		.cfi_offset 10, -12
 371              		.cfi_offset 11, -8
 372              		.cfi_offset 14, -4
 373 0004 83B0     		sub	sp, sp, #12
 374              		.cfi_def_cfa_offset 48
 375 0006 8346     		mov	fp, r0
 376 0008 8A46     		mov	r10, r1
 377 000a 1746     		mov	r7, r2
 378 000c 9946     		mov	r9, r3
 379 000e 0C9D     		ldr	r5, [sp, #48]
 380 0010 0D9E     		ldr	r6, [sp, #52]
 100:graphicaldisplay.c **** 
 101:graphicaldisplay.c ****     int xstep = (w-xmargin*2)/xdiv;
 381              		.loc 1 101 0
 382 0012 A0EB4503 		sub	r3, r0, r5, lsl #1
 383              	.LVL39:
 384 0016 93FBF2F3 		sdiv	r3, r3, r2
 385 001a 0193     		str	r3, [sp, #4]
 386              	.LVL40:
 102:graphicaldisplay.c ****     int ystep = (h-ymargin*2)/ydiv;
 387              		.loc 1 102 0
 388 001c A1EB4608 		sub	r8, r1, r6, lsl #1
 389 0020 98FBF9F8 		sdiv	r8, r8, r9
 390              	.LVL41:
 103:graphicaldisplay.c ****  
 104:graphicaldisplay.c ****     GUI_SetPenSize(1);
 391              		.loc 1 104 0
 392 0024 0120     		movs	r0, #1
 393              	.LVL42:
 394 0026 FFF7FEFF 		bl	GUI_SetPenSize
 395              	.LVL43:
 105:graphicaldisplay.c ****     GUI_SetColor(GUI_LIGHTGRAY);
 396              		.loc 1 105 0
 397 002a 1248     		ldr	r0, .L30
 398 002c FFF7FEFF 		bl	GUI_SetColor
 399              	.LVL44:
 106:graphicaldisplay.c ****     GUI_SetLineStyle(GUI_LS_DOT);
 400              		.loc 1 106 0
 401 0030 0220     		movs	r0, #2
 402 0032 FFF7FEFF 		bl	GUI_SetLineStyle
ARM GAS  C:\Users\RYANHA~1\AppData\Local\Temp\ccStTnho.s 			page 10


 403              	.LVL45:
 404              	.LBB4:
 107:graphicaldisplay.c ****     for (int i=1; i<ydiv; i++){
 405              		.loc 1 107 0
 406 0036 0124     		movs	r4, #1
 407 0038 08E0     		b	.L25
 408              	.LVL46:
 409              	.L26:
 108:graphicaldisplay.c ****         GUI_DrawLine(xmargin, ymargin+i*ystep, w-xmargin, ymargin+i*ystep);
 410              		.loc 1 108 0 discriminator 3
 411 003a 08FB0461 		mla	r1, r8, r4, r6
 412 003e 0B46     		mov	r3, r1
 413 0040 C5EB0B02 		rsb	r2, r5, fp
 414 0044 2846     		mov	r0, r5
 415 0046 FFF7FEFF 		bl	GUI_DrawLine
 416              	.LVL47:
 107:graphicaldisplay.c ****     for (int i=1; i<ydiv; i++){
 417              		.loc 1 107 0 discriminator 3
 418 004a 0134     		adds	r4, r4, #1
 419              	.LVL48:
 420              	.L25:
 107:graphicaldisplay.c ****     for (int i=1; i<ydiv; i++){
 421              		.loc 1 107 0 is_stmt 0 discriminator 1
 422 004c 4C45     		cmp	r4, r9
 423 004e F4DB     		blt	.L26
 424 0050 0124     		movs	r4, #1
 425              	.LVL49:
 426 0052 DDF80480 		ldr	r8, [sp, #4]
 427              	.LVL50:
 428 0056 08E0     		b	.L27
 429              	.LVL51:
 430              	.L28:
 431              	.LBE4:
 432              	.LBB5:
 109:graphicaldisplay.c ****     }
 110:graphicaldisplay.c ****     for (int i=1; i<xdiv; i++){
 111:graphicaldisplay.c ****       GUI_DrawLine(xmargin+i*xstep, ymargin, xmargin+i*xstep, h-ymargin);
 433              		.loc 1 111 0 is_stmt 1 discriminator 3
 434 0058 08FB0450 		mla	r0, r8, r4, r5
 435 005c C6EB0A03 		rsb	r3, r6, r10
 436 0060 0246     		mov	r2, r0
 437 0062 3146     		mov	r1, r6
 438 0064 FFF7FEFF 		bl	GUI_DrawLine
 439              	.LVL52:
 110:graphicaldisplay.c ****       GUI_DrawLine(xmargin+i*xstep, ymargin, xmargin+i*xstep, h-ymargin);
 440              		.loc 1 110 0 discriminator 3
 441 0068 0134     		adds	r4, r4, #1
 442              	.LVL53:
 443              	.L27:
 110:graphicaldisplay.c ****       GUI_DrawLine(xmargin+i*xstep, ymargin, xmargin+i*xstep, h-ymargin);
 444              		.loc 1 110 0 is_stmt 0 discriminator 1
 445 006a BC42     		cmp	r4, r7
 446 006c F4DB     		blt	.L28
 447              	.LBE5:
 112:graphicaldisplay.c ****     }
 113:graphicaldisplay.c **** }
 448              		.loc 1 113 0 is_stmt 1
ARM GAS  C:\Users\RYANHA~1\AppData\Local\Temp\ccStTnho.s 			page 11


 449 006e 03B0     		add	sp, sp, #12
 450              		.cfi_def_cfa_offset 36
 451              		@ sp needed
 452 0070 BDE8F08F 		pop	{r4, r5, r6, r7, r8, r9, r10, fp, pc}
 453              	.LVL54:
 454              	.L31:
 455              		.align	2
 456              	.L30:
 457 0074 D3D3D300 		.word	13882323
 458              		.cfi_endproc
 459              	.LFE641:
 460              		.size	drawGrid, .-drawGrid
 461              		.section	.text.printScaleSettings,"ax",%progbits
 462              		.align	2
 463              		.global	printScaleSettings
 464              		.thumb
 465              		.thumb_func
 466              		.type	printScaleSettings, %function
 467              	printScaleSettings:
 468              	.LFB642:
 114:graphicaldisplay.c **** 
 115:graphicaldisplay.c **** /*******************************************************************************
 116:graphicaldisplay.c **** // Display x and y scale settings
 117:graphicaldisplay.c **** *******************************************************************************/
 118:graphicaldisplay.c **** 
 119:graphicaldisplay.c **** void printScaleSettings(int xscale, int yscale, int xposition, int yposition) { 
 469              		.loc 1 119 0
 470              		.cfi_startproc
 471              		@ args = 0, pretend = 0, frame = 24
 472              		@ frame_needed = 0, uses_anonymous_args = 0
 473              	.LVL55:
 474 0000 F0B5     		push	{r4, r5, r6, r7, lr}
 475              		.cfi_def_cfa_offset 20
 476              		.cfi_offset 4, -20
 477              		.cfi_offset 5, -16
 478              		.cfi_offset 6, -12
 479              		.cfi_offset 7, -8
 480              		.cfi_offset 14, -4
 481 0002 87B0     		sub	sp, sp, #28
 482              		.cfi_def_cfa_offset 48
 483 0004 0746     		mov	r7, r0
 484 0006 0C46     		mov	r4, r1
 485 0008 1546     		mov	r5, r2
 486 000a 1E46     		mov	r6, r3
 120:graphicaldisplay.c ****  char str[20];
 121:graphicaldisplay.c ****  
 122:graphicaldisplay.c ****  GUI_SetBkColor(GUI_DARKCYAN); // Set background color
 487              		.loc 1 122 0
 488 000c 2248     		ldr	r0, .L38
 489              	.LVL56:
 490 000e FFF7FEFF 		bl	GUI_SetBkColor
 491              	.LVL57:
 123:graphicaldisplay.c ****  GUI_SetFont(GUI_FONT_16B_1); // Set font
 492              		.loc 1 123 0
 493 0012 2248     		ldr	r0, .L38+4
 494 0014 FFF7FEFF 		bl	GUI_SetFont
 495              	.LVL58:
ARM GAS  C:\Users\RYANHA~1\AppData\Local\Temp\ccStTnho.s 			page 12


 124:graphicaldisplay.c ****  GUI_SetColor(GUI_LIGHTGRAY); // Set foreground color
 496              		.loc 1 124 0
 497 0018 2148     		ldr	r0, .L38+8
 498 001a FFF7FEFF 		bl	GUI_SetColor
 499              	.LVL59:
 125:graphicaldisplay.c ****  if (xscale >= 1000)
 500              		.loc 1 125 0
 501 001e B7F57A7F 		cmp	r7, #1000
 502 0022 0ADB     		blt	.L33
 126:graphicaldisplay.c ****     sprintf(str, "Xscale: %0d ms/div", xscale/1000);
 503              		.loc 1 126 0
 504 0024 1F4A     		ldr	r2, .L38+12
 505 0026 82FB0732 		smull	r3, r2, r2, r7
 506 002a FF17     		asrs	r7, r7, #31
 507              	.LVL60:
 508 002c C7EBA212 		rsb	r2, r7, r2, asr #6
 509 0030 1D49     		ldr	r1, .L38+16
 510 0032 01A8     		add	r0, sp, #4
 511 0034 FFF7FEFF 		bl	sprintf
 512              	.LVL61:
 513 0038 04E0     		b	.L34
 514              	.LVL62:
 515              	.L33:
 127:graphicaldisplay.c ****  else
 128:graphicaldisplay.c ****     sprintf(str, "Xscale: %0d us/div", xscale);
 516              		.loc 1 128 0
 517 003a 3A46     		mov	r2, r7
 518 003c 1B49     		ldr	r1, .L38+20
 519 003e 01A8     		add	r0, sp, #4
 520 0040 FFF7FEFF 		bl	sprintf
 521              	.LVL63:
 522              	.L34:
 129:graphicaldisplay.c ****  GUI_DispStringAt(str, xposition, yposition);
 523              		.loc 1 129 0
 524 0044 3246     		mov	r2, r6
 525 0046 2946     		mov	r1, r5
 526 0048 01A8     		add	r0, sp, #4
 527 004a FFF7FEFF 		bl	GUI_DispStringAt
 528              	.LVL64:
 130:graphicaldisplay.c ****  int yscaleVolts = yscale/1000;
 529              		.loc 1 130 0
 530 004e 154A     		ldr	r2, .L38+12
 531 0050 82FB0432 		smull	r3, r2, r2, r4
 532 0054 E317     		asrs	r3, r4, #31
 533 0056 C3EBA212 		rsb	r2, r3, r2, asr #6
 534              	.LVL65:
 131:graphicaldisplay.c ****  int yscalemVolts = yscale % 1000;
 535              		.loc 1 131 0
 536 005a 4FF47A71 		mov	r1, #1000
 537 005e 01FB1241 		mls	r1, r1, r2, r4
 538              	.LVL66:
 132:graphicaldisplay.c ****  if (yscale >= 1000)
 539              		.loc 1 132 0
 540 0062 B4F57A7F 		cmp	r4, #1000
 541 0066 04DB     		blt	.L35
 133:graphicaldisplay.c ****    sprintf(str, "Yscale: %0d V/div", yscaleVolts);
 542              		.loc 1 133 0
ARM GAS  C:\Users\RYANHA~1\AppData\Local\Temp\ccStTnho.s 			page 13


 543 0068 1149     		ldr	r1, .L38+24
 544              	.LVL67:
 545 006a 01A8     		add	r0, sp, #4
 546 006c FFF7FEFF 		bl	sprintf
 547              	.LVL68:
 548 0070 09E0     		b	.L36
 549              	.LVL69:
 550              	.L35:
 134:graphicaldisplay.c ****  else
 135:graphicaldisplay.c ****    sprintf(str, "Yscale: %0d.%0d V/div", yscaleVolts, yscalemVolts/100);
 551              		.loc 1 135 0
 552 0072 104B     		ldr	r3, .L38+28
 553 0074 83FB0103 		smull	r0, r3, r3, r1
 554 0078 C917     		asrs	r1, r1, #31
 555              	.LVL70:
 556 007a C1EB6313 		rsb	r3, r1, r3, asr #5
 557 007e 0E49     		ldr	r1, .L38+32
 558 0080 01A8     		add	r0, sp, #4
 559 0082 FFF7FEFF 		bl	sprintf
 560              	.LVL71:
 561              	.L36:
 136:graphicaldisplay.c ****  GUI_DispStringAt(str, xposition, yposition + 20);
 562              		.loc 1 136 0
 563 0086 06F11402 		add	r2, r6, #20
 564 008a 2946     		mov	r1, r5
 565 008c 01A8     		add	r0, sp, #4
 566 008e FFF7FEFF 		bl	GUI_DispStringAt
 567              	.LVL72:
 137:graphicaldisplay.c ****   
 138:graphicaldisplay.c **** }
 568              		.loc 1 138 0
 569 0092 07B0     		add	sp, sp, #28
 570              		.cfi_def_cfa_offset 20
 571              		@ sp needed
 572 0094 F0BD     		pop	{r4, r5, r6, r7, pc}
 573              	.LVL73:
 574              	.L39:
 575 0096 00BF     		.align	2
 576              	.L38:
 577 0098 00808000 		.word	8421376
 578 009c 00000000 		.word	GUI_Font16B_1
 579 00a0 D3D3D300 		.word	13882323
 580 00a4 D34D6210 		.word	274877907
 581 00a8 24000000 		.word	.LC2
 582 00ac 38000000 		.word	.LC3
 583 00b0 4C000000 		.word	.LC4
 584 00b4 1F85EB51 		.word	1374389535
 585 00b8 60000000 		.word	.LC5
 586              		.cfi_endproc
 587              	.LFE642:
 588              		.size	printScaleSettings, .-printScaleSettings
 589              		.section	.text.printFrequency,"ax",%progbits
 590              		.align	2
 591              		.global	printFrequency
 592              		.thumb
 593              		.thumb_func
 594              		.type	printFrequency, %function
ARM GAS  C:\Users\RYANHA~1\AppData\Local\Temp\ccStTnho.s 			page 14


 595              	printFrequency:
 596              	.LFB643:
 139:graphicaldisplay.c **** 
 140:graphicaldisplay.c **** /*******************************************************************************
 141:graphicaldisplay.c **** // Display frequency
 142:graphicaldisplay.c **** *******************************************************************************/
 143:graphicaldisplay.c **** 
 144:graphicaldisplay.c **** void printFrequency(int xfreq, int yfreq, int xposition, int yposition) { 
 597              		.loc 1 144 0
 598              		.cfi_startproc
 599              		@ args = 0, pretend = 0, frame = 24
 600              		@ frame_needed = 0, uses_anonymous_args = 0
 601              	.LVL74:
 602 0000 F0B5     		push	{r4, r5, r6, r7, lr}
 603              		.cfi_def_cfa_offset 20
 604              		.cfi_offset 4, -20
 605              		.cfi_offset 5, -16
 606              		.cfi_offset 6, -12
 607              		.cfi_offset 7, -8
 608              		.cfi_offset 14, -4
 609 0002 87B0     		sub	sp, sp, #28
 610              		.cfi_def_cfa_offset 48
 611 0004 0746     		mov	r7, r0
 612 0006 0E46     		mov	r6, r1
 613 0008 1446     		mov	r4, r2
 614 000a 1D46     		mov	r5, r3
 145:graphicaldisplay.c ****  char str[20];
 146:graphicaldisplay.c ****  
 147:graphicaldisplay.c ****  GUI_SetBkColor(GUI_DARKCYAN); // Set background color
 615              		.loc 1 147 0
 616 000c 0F48     		ldr	r0, .L42
 617              	.LVL75:
 618 000e FFF7FEFF 		bl	GUI_SetBkColor
 619              	.LVL76:
 148:graphicaldisplay.c ****  GUI_SetFont(GUI_FONT_16B_1); // Set font
 620              		.loc 1 148 0
 621 0012 0F48     		ldr	r0, .L42+4
 622 0014 FFF7FEFF 		bl	GUI_SetFont
 623              	.LVL77:
 149:graphicaldisplay.c ****  GUI_SetColor(GUI_LIGHTGRAY); // Set foreground color
 624              		.loc 1 149 0
 625 0018 0E48     		ldr	r0, .L42+8
 626 001a FFF7FEFF 		bl	GUI_SetColor
 627              	.LVL78:
 150:graphicaldisplay.c ****  
 151:graphicaldisplay.c ****  sprintf(str, "Ch 1 Freq: %0d kHz", xfreq);
 628              		.loc 1 151 0
 629 001e 3A46     		mov	r2, r7
 630 0020 0D49     		ldr	r1, .L42+12
 631 0022 01A8     		add	r0, sp, #4
 632 0024 FFF7FEFF 		bl	sprintf
 633              	.LVL79:
 152:graphicaldisplay.c ****  GUI_DispStringAt(str, xposition, yposition);
 634              		.loc 1 152 0
 635 0028 2A46     		mov	r2, r5
 636 002a 2146     		mov	r1, r4
 637 002c 01A8     		add	r0, sp, #4
ARM GAS  C:\Users\RYANHA~1\AppData\Local\Temp\ccStTnho.s 			page 15


 638 002e FFF7FEFF 		bl	GUI_DispStringAt
 639              	.LVL80:
 153:graphicaldisplay.c ****  sprintf(str, "Ch 2 Freq: %0d kHz", yfreq);
 640              		.loc 1 153 0
 641 0032 3246     		mov	r2, r6
 642 0034 0949     		ldr	r1, .L42+16
 643 0036 01A8     		add	r0, sp, #4
 644 0038 FFF7FEFF 		bl	sprintf
 645              	.LVL81:
 154:graphicaldisplay.c ****  GUI_DispStringAt(str, xposition, yposition + 20);
 646              		.loc 1 154 0
 647 003c 05F11402 		add	r2, r5, #20
 648 0040 2146     		mov	r1, r4
 649 0042 01A8     		add	r0, sp, #4
 650 0044 FFF7FEFF 		bl	GUI_DispStringAt
 651              	.LVL82:
 155:graphicaldisplay.c **** }
 652              		.loc 1 155 0
 653 0048 07B0     		add	sp, sp, #28
 654              		.cfi_def_cfa_offset 20
 655              		@ sp needed
 656 004a F0BD     		pop	{r4, r5, r6, r7, pc}
 657              	.LVL83:
 658              	.L43:
 659              		.align	2
 660              	.L42:
 661 004c 00808000 		.word	8421376
 662 0050 00000000 		.word	GUI_Font16B_1
 663 0054 D3D3D300 		.word	13882323
 664 0058 78000000 		.word	.LC6
 665 005c 8C000000 		.word	.LC7
 666              		.cfi_endproc
 667              	.LFE643:
 668              		.size	printFrequency, .-printFrequency
 669              		.section	.text.plotWave,"ax",%progbits
 670              		.align	2
 671              		.global	plotWave
 672              		.thumb
 673              		.thumb_func
 674              		.type	plotWave, %function
 675              	plotWave:
 676              	.LFB644:
 156:graphicaldisplay.c **** 
 157:graphicaldisplay.c **** /*******************************************************************************
 158:graphicaldisplay.c **** // Plot waveform
 159:graphicaldisplay.c **** *******************************************************************************/
 160:graphicaldisplay.c **** 
 161:graphicaldisplay.c **** void plotWave(int channel, // Channel to be plotted: 0 or 1
 162:graphicaldisplay.c ****               int xpos, int ypos, // X and Y coordinates
 163:graphicaldisplay.c ****               uint32_t color){ // Color of wave
 677              		.loc 1 163 0
 678              		.cfi_startproc
 679              		@ args = 0, pretend = 0, frame = 0
 680              		@ frame_needed = 0, uses_anonymous_args = 0
 681              	.LVL84:
 682 0000 F8B5     		push	{r3, r4, r5, r6, r7, lr}
 683              		.cfi_def_cfa_offset 24
ARM GAS  C:\Users\RYANHA~1\AppData\Local\Temp\ccStTnho.s 			page 16


 684              		.cfi_offset 3, -24
 685              		.cfi_offset 4, -20
 686              		.cfi_offset 5, -16
 687              		.cfi_offset 6, -12
 688              		.cfi_offset 7, -8
 689              		.cfi_offset 14, -4
 690 0002 0646     		mov	r6, r0
 691 0004 0C46     		mov	r4, r1
 692 0006 1546     		mov	r5, r2
 693 0008 1F46     		mov	r7, r3
 164:graphicaldisplay.c ****                 
 165:graphicaldisplay.c ****     GUI_SetPenSize(4);
 694              		.loc 1 165 0
 695 000a 0420     		movs	r0, #4
 696              	.LVL85:
 697 000c FFF7FEFF 		bl	GUI_SetPenSize
 698              	.LVL86:
 166:graphicaldisplay.c ****     GUI_SetColor(color);
 699              		.loc 1 166 0
 700 0010 3846     		mov	r0, r7
 701 0012 FFF7FEFF 		bl	GUI_SetColor
 702              	.LVL87:
 167:graphicaldisplay.c ****     if (channel == 0)
 703              		.loc 1 167 0
 704 0016 36B9     		cbnz	r6, .L45
 168:graphicaldisplay.c ****      GUI_SPLINE_Draw(ch1_spline, xpos, ypos);
 705              		.loc 1 168 0
 706 0018 2A46     		mov	r2, r5
 707 001a 2146     		mov	r1, r4
 708 001c 054B     		ldr	r3, .L48
 709 001e 1868     		ldr	r0, [r3]
 710 0020 FFF7FEFF 		bl	GUI_SPLINE_Draw
 711              	.LVL88:
 712 0024 F8BD     		pop	{r3, r4, r5, r6, r7, pc}
 713              	.LVL89:
 714              	.L45:
 169:graphicaldisplay.c ****     else
 170:graphicaldisplay.c ****      GUI_SPLINE_Draw(ch2_spline, xpos, ypos);
 715              		.loc 1 170 0
 716 0026 2A46     		mov	r2, r5
 717 0028 2146     		mov	r1, r4
 718 002a 034B     		ldr	r3, .L48+4
 719 002c 1868     		ldr	r0, [r3]
 720 002e FFF7FEFF 		bl	GUI_SPLINE_Draw
 721              	.LVL90:
 722 0032 F8BD     		pop	{r3, r4, r5, r6, r7, pc}
 723              	.LVL91:
 724              	.L49:
 725              		.align	2
 726              	.L48:
 727 0034 00000000 		.word	ch1_spline
 728 0038 00000000 		.word	ch2_spline
 729              		.cfi_endproc
 730              	.LFE644:
 731              		.size	plotWave, .-plotWave
 732              		.comm	ch2_spline,4,4
 733              		.comm	ch1_spline,4,4
ARM GAS  C:\Users\RYANHA~1\AppData\Local\Temp\ccStTnho.s 			page 17


 734              		.section	.rodata.str1.4,"aMS",%progbits,1
 735              		.align	2
 736              	.LC0:
 737 0000 54696E79 		.ascii	"TinyScope\000"
 737      53636F70 
 737      6500
 738 000a 0000     		.space	2
 739              	.LC1:
 740 000c 43534520 		.ascii	"CSE 121/L Final Project\000"
 740      3132312F 
 740      4C204669 
 740      6E616C20 
 740      50726F6A 
 741              	.LC2:
 742 0024 58736361 		.ascii	"Xscale: %0d ms/div\000"
 742      6C653A20 
 742      25306420 
 742      6D732F64 
 742      697600
 743 0037 00       		.space	1
 744              	.LC3:
 745 0038 58736361 		.ascii	"Xscale: %0d us/div\000"
 745      6C653A20 
 745      25306420 
 745      75732F64 
 745      697600
 746 004b 00       		.space	1
 747              	.LC4:
 748 004c 59736361 		.ascii	"Yscale: %0d V/div\000"
 748      6C653A20 
 748      25306420 
 748      562F6469 
 748      7600
 749 005e 0000     		.space	2
 750              	.LC5:
 751 0060 59736361 		.ascii	"Yscale: %0d.%0d V/div\000"
 751      6C653A20 
 751      2530642E 
 751      25306420 
 751      562F6469 
 752 0076 0000     		.space	2
 753              	.LC6:
 754 0078 43682031 		.ascii	"Ch 1 Freq: %0d kHz\000"
 754      20467265 
 754      713A2025 
 754      3064206B 
 754      487A00
 755 008b 00       		.space	1
 756              	.LC7:
 757 008c 43682032 		.ascii	"Ch 2 Freq: %0d kHz\000"
 757      20467265 
 757      713A2025 
 757      3064206B 
 757      487A00
 758              		.text
 759              	.Letext0:
 760              		.file 2 "c:\\program files (x86)\\cypress\\psoc creator\\4.3\\psoc creator\\import\\gnu\\arm\\5.4.
ARM GAS  C:\Users\RYANHA~1\AppData\Local\Temp\ccStTnho.s 			page 18


 761              		.file 3 "c:\\program files (x86)\\cypress\\psoc creator\\4.3\\psoc creator\\import\\gnu\\arm\\5.4.
 762              		.file 4 "Generated_Source\\PSoC6\\pdl\\drivers/peripheral/device/cy_device.h"
 763              		.file 5 "Generated_Source\\PSoC6\\pdl\\drivers/peripheral/sar/cy_sar.h"
 764              		.file 6 "Generated_Source\\PSoC6\\pdl\\drivers/peripheral/scb/cy_scb_uart.h"
 765              		.file 7 "Generated_Source\\PSoC6/ADC_1.h"
 766              		.file 8 "Generated_Source\\PSoC6\\pdl\\middleware/emWin/code/include/GUI_Type.h"
 767              		.file 9 "Generated_Source\\PSoC6\\pdl\\cmsis/include/core_cm4.h"
 768              		.file 10 "Generated_Source\\PSoC6/UART_1.h"
 769              		.file 11 "Generated_Source\\PSoC6\\pdl\\middleware/emWin/code/include/GUI.h"
 770              		.file 12 "c:\\program files (x86)\\cypress\\psoc creator\\4.3\\psoc creator\\import\\gnu\\arm\\5.4
 771              		.file 13 "c:\\program files (x86)\\cypress\\psoc creator\\4.3\\psoc creator\\import\\gnu\\arm\\5.4